target datalayout = "e-m:e-p270:32:32-p271:32:32-p272:64:64-i64:64-i128:128-f80:128-n8:16:32:64-S128"
target triple = "x86_64-pc-linux-gnu"

%struct._object = type { %union.anon, ptr }
%union.anon = type { i64 }
%struct._Py_ext_module_loader_info = type { ptr, ptr, ptr, ptr, ptr, i32, ptr, ptr }
%struct.anon = type { i32, i32 }

; Function Attrs: alwaysinline nounwind uwtable
define internal i32 @_Py_IsImmortal(ptr noundef %0) #2 {
  %2 = alloca ptr, align 8
  store ptr %0, ptr %2, align 8, !tbaa !11
  %3 = load ptr, ptr %2, align 8, !tbaa !11
  %4 = getelementptr inbounds nuw %struct._object, ptr %3, i32 0, i32 0
  %5 = getelementptr inbounds nuw %struct.anon, ptr %4, i32 0, i32 0
  %6 = load i32, ptr %5, align 8, !tbaa !13
  %7 = icmp slt i32 %6, 0
  %8 = zext i1 %7 to i32
  ret i32 %8
}

; Function Attrs: alwaysinline nounwind uwtable
define internal void @Py_DECREF(ptr noundef %0) #2 {
  %2 = alloca ptr, align 8
  store ptr %0, ptr %2, align 8, !tbaa !11
  %3 = load ptr, ptr %2, align 8, !tbaa !11
  %4 = call i32 @_Py_IsImmortal(ptr noundef %3)
  %5 = icmp ne i32 %4, 0
  br i1 %5, label %6, label %7

6:                                                ; preds = %1
  br label %16

7:                                                ; preds = %1
  %8 = load ptr, ptr %2, align 8, !tbaa !11
  %9 = getelementptr inbounds nuw %struct._object, ptr %8, i32 0, i32 0
  %10 = getelementptr inbounds nuw %struct.anon, ptr %9, i32 0, i32 0
  %11 = load i32, ptr %10, align 8, !tbaa !13
  %12 = add i32 %11, -1
  store i32 %12, ptr %10, align 8, !tbaa !13
  %13 = icmp eq i32 %12, 0
  br i1 %13, label %14, label %16

14:                                               ; preds = %7
  %15 = load ptr, ptr %2, align 8, !tbaa !11
  call void @_Py_Dealloc(ptr noundef %15)
  br label %16

16:                                               ; preds = %6, %14, %7
  ret void
}

; Function Attrs: nounwind uwtable
define hidden void @_Py_ext_module_loader_info_clear(ptr noundef %0) #0 {
  %2 = alloca ptr, align 8
  %3 = alloca ptr, align 8
  %4 = alloca ptr, align 8
  %5 = alloca ptr, align 8
  %6 = alloca ptr, align 8
  %7 = alloca ptr, align 8
  %8 = alloca ptr, align 8
  %9 = alloca ptr, align 8
  %10 = alloca ptr, align 8
  store ptr %0, ptr %2, align 8, !tbaa !4
  br label %11

11:                                               ; preds = %1
  call void @llvm.lifetime.start.p0(i64 8, ptr %3) #7
  %12 = load ptr, ptr %2, align 8, !tbaa !4
  %13 = getelementptr inbounds nuw %struct._Py_ext_module_loader_info, ptr %12, i32 0, i32 0
  store ptr %13, ptr %3, align 8, !tbaa !9
  call void @llvm.lifetime.start.p0(i64 8, ptr %4) #7
  %14 = load ptr, ptr %3, align 8, !tbaa !9
  %15 = load ptr, ptr %14, align 8, !tbaa !11
  store ptr %15, ptr %4, align 8, !tbaa !11
  %16 = load ptr, ptr %4, align 8, !tbaa !11
  %17 = icmp ne ptr %16, null
  br i1 %17, label %18, label %21

18:                                               ; preds = %11
  %19 = load ptr, ptr %3, align 8, !tbaa !9
  store ptr null, ptr %19, align 8, !tbaa !11
  %20 = load ptr, ptr %4, align 8, !tbaa !11
  call void @Py_DECREF(ptr noundef %20)
  br label %21

21:                                               ; preds = %18, %11
  call void @llvm.lifetime.end.p0(i64 8, ptr %4) #7
  call void @llvm.lifetime.end.p0(i64 8, ptr %3) #7
  br label %22

22:                                               ; preds = %21
  br label %23

23:                                               ; preds = %22
  call void @llvm.lifetime.start.p0(i64 8, ptr %5) #7
  %24 = load ptr, ptr %2, align 8, !tbaa !4
  %25 = getelementptr inbounds nuw %struct._Py_ext_module_loader_info, ptr %24, i32 0, i32 1
  store ptr %25, ptr %5, align 8, !tbaa !9
  call void @llvm.lifetime.start.p0(i64 8, ptr %6) #7
  %26 = load ptr, ptr %5, align 8, !tbaa !9
  %27 = load ptr, ptr %26, align 8, !tbaa !11
  store ptr %27, ptr %6, align 8, !tbaa !11
  %28 = load ptr, ptr %6, align 8, !tbaa !11
  %29 = icmp ne ptr %28, null
  br i1 %29, label %30, label %33

30:                                               ; preds = %23
  %31 = load ptr, ptr %5, align 8, !tbaa !9
  store ptr null, ptr %31, align 8, !tbaa !11
  %32 = load ptr, ptr %6, align 8, !tbaa !11
  call void @Py_DECREF(ptr noundef %32)
  br label %33

33:                                               ; preds = %30, %23
  call void @llvm.lifetime.end.p0(i64 8, ptr %6) #7
  call void @llvm.lifetime.end.p0(i64 8, ptr %5) #7
  br label %34

34:                                               ; preds = %33
  br label %35

35:                                               ; preds = %34
  call void @llvm.lifetime.start.p0(i64 8, ptr %7) #7
  %36 = load ptr, ptr %2, align 8, !tbaa !4
  %37 = getelementptr inbounds nuw %struct._Py_ext_module_loader_info, ptr %36, i32 0, i32 2
  store ptr %37, ptr %7, align 8, !tbaa !9
  call void @llvm.lifetime.start.p0(i64 8, ptr %8) #7
  %38 = load ptr, ptr %7, align 8, !tbaa !9
  %39 = load ptr, ptr %38, align 8, !tbaa !11
  store ptr %39, ptr %8, align 8, !tbaa !11
  %40 = load ptr, ptr %8, align 8, !tbaa !11
  %41 = icmp ne ptr %40, null
  br i1 %41, label %42, label %45

42:                                               ; preds = %35
  %43 = load ptr, ptr %7, align 8, !tbaa !9
  store ptr null, ptr %43, align 8, !tbaa !11
  %44 = load ptr, ptr %8, align 8, !tbaa !11
  call void @Py_DECREF(ptr noundef %44)
  br label %45

45:                                               ; preds = %42, %35
  call void @llvm.lifetime.end.p0(i64 8, ptr %8) #7
  call void @llvm.lifetime.end.p0(i64 8, ptr %7) #7
  br label %46

46:                                               ; preds = %45
  br label %47

47:                                               ; preds = %46
  call void @llvm.lifetime.start.p0(i64 8, ptr %9) #7
  %48 = load ptr, ptr %2, align 8, !tbaa !4
  %49 = getelementptr inbounds nuw %struct._Py_ext_module_loader_info, ptr %48, i32 0, i32 3
  store ptr %49, ptr %9, align 8, !tbaa !9
  call void @llvm.lifetime.start.p0(i64 8, ptr %10) #7
  %50 = load ptr, ptr %9, align 8, !tbaa !9
  %51 = load ptr, ptr %50, align 8, !tbaa !11
  store ptr %51, ptr %10, align 8, !tbaa !11
  %52 = load ptr, ptr %10, align 8, !tbaa !11
  %53 = icmp ne ptr %52, null
  br i1 %53, label %54, label %57

54:                                               ; preds = %47
  %55 = load ptr, ptr %9, align 8, !tbaa !9
  store ptr null, ptr %55, align 8, !tbaa !11
  %56 = load ptr, ptr %10, align 8, !tbaa !11
  call void @Py_DECREF(ptr noundef %56)
  br label %57

57:                                               ; preds = %54, %47
  call void @llvm.lifetime.end.p0(i64 8, ptr %10) #7
  call void @llvm.lifetime.end.p0(i64 8, ptr %9) #7
  br label %58

58:                                               ; preds = %57
  ret void
}