; Function Attrs: nounwind uwtable
define hidden void @_Py_ext_module_loader_info_clear(ptr noundef captures(none) %0) local_unnamed_addr #0 {
  %2 = load ptr, ptr %0, align 8, !tbaa !4
  %.not = icmp eq ptr %2, null
  br i1 %.not, label %Py_DECREF.exit, label %3

3:                                                ; preds = %1
  store ptr null, ptr %0, align 8, !tbaa !4
  %4 = load i32, ptr %2, align 8, !tbaa !9
  %.not.i = icmp sgt i32 %4, -1
  br i1 %.not.i, label %5, label %Py_DECREF.exit

5:                                                ; preds = %3
  %6 = add nsw i32 %4, -1
  store i32 %6, ptr %2, align 8, !tbaa !9
  %7 = icmp eq i32 %6, 0
  br i1 %7, label %8, label %Py_DECREF.exit

8:                                                ; preds = %5
  tail call void @_Py_Dealloc(ptr noundef nonnull %2) #6
  br label %Py_DECREF.exit

Py_DECREF.exit:                                   ; preds = %8, %5, %3, %1
  %9 = getelementptr inbounds nuw i8, ptr %0, i64 8
  %10 = load ptr, ptr %9, align 8, !tbaa !4
  %.not23 = icmp eq ptr %10, null
  br i1 %.not23, label %Py_DECREF.exit27, label %11

11:                                               ; preds = %Py_DECREF.exit
  store ptr null, ptr %9, align 8, !tbaa !4
  %12 = load i32, ptr %10, align 8, !tbaa !9
  %.not.i26 = icmp sgt i32 %12, -1
  br i1 %.not.i26, label %13, label %Py_DECREF.exit27

13:                                               ; preds = %11
  %14 = add nsw i32 %12, -1
  store i32 %14, ptr %10, align 8, !tbaa !9
  %15 = icmp eq i32 %14, 0
  br i1 %15, label %16, label %Py_DECREF.exit27

16:                                               ; preds = %13
  tail call void @_Py_Dealloc(ptr noundef nonnull %10) #6
  br label %Py_DECREF.exit27

Py_DECREF.exit27:                                 ; preds = %16, %13, %11, %Py_DECREF.exit
  %17 = getelementptr inbounds nuw i8, ptr %0, i64 16
  %18 = load ptr, ptr %17, align 8, !tbaa !4
  %.not24 = icmp eq ptr %18, null
  br i1 %.not24, label %Py_DECREF.exit29, label %19

19:                                               ; preds = %Py_DECREF.exit27
  store ptr null, ptr %17, align 8, !tbaa !4
  %20 = load i32, ptr %18, align 8, !tbaa !9
  %.not.i28 = icmp sgt i32 %20, -1
  br i1 %.not.i28, label %21, label %Py_DECREF.exit29

21:                                               ; preds = %19
  %22 = add nsw i32 %20, -1
  store i32 %22, ptr %18, align 8, !tbaa !9
  %23 = icmp eq i32 %22, 0
  br i1 %23, label %24, label %Py_DECREF.exit29

24:                                               ; preds = %21
  tail call void @_Py_Dealloc(ptr noundef nonnull %18) #6
  br label %Py_DECREF.exit29

Py_DECREF.exit29:                                 ; preds = %24, %21, %19, %Py_DECREF.exit27
  %25 = getelementptr inbounds nuw i8, ptr %0, i64 24
  %26 = load ptr, ptr %25, align 8, !tbaa !4
  %.not25 = icmp eq ptr %26, null
  br i1 %.not25, label %Py_DECREF.exit31, label %27

27:                                               ; preds = %Py_DECREF.exit29
  store ptr null, ptr %25, align 8, !tbaa !4
  %28 = load i32, ptr %26, align 8, !tbaa !9
  %.not.i30 = icmp sgt i32 %28, -1
  br i1 %.not.i30, label %29, label %Py_DECREF.exit31

29:                                               ; preds = %27
  %30 = add nsw i32 %28, -1
  store i32 %30, ptr %26, align 8, !tbaa !9
  %31 = icmp eq i32 %30, 0
  br i1 %31, label %32, label %Py_DECREF.exit31

32:                                               ; preds = %29
  tail call void @_Py_Dealloc(ptr noundef nonnull %26) #6
  br label %Py_DECREF.exit31

Py_DECREF.exit31:                                 ; preds = %32, %29, %27, %Py_DECREF.exit29
  ret void
}